; ModuleID = '19/671.c'
source_filename = "19/671.c"
target datalayout = "e-m:e-p270:32:32-p271:32:32-p272:64:64-i64:64-f80:128-n8:16:32:64-S128"
target triple = "x86_64-pc-linux-gnu"

@.str = private unnamed_addr constant [3 x i8] c"%s\00", align 1

; Function Attrs: noinline nounwind uwtable
define dso_local i32 @main() #0 {
  %1 = alloca i32, align 4
  %2 = alloca [100 x i8], align 16
  %3 = alloca [100 x i8], align 16
  %4 = alloca [100 x i8], align 16
  %5 = alloca [100 x i8], align 16
  %6 = alloca [100 x i8], align 16
  %7 = alloca i32, align 4
  %8 = alloca i32, align 4
  %9 = alloca i32, align 4
  %10 = alloca i32, align 4
  store i32 0, i32* %1, align 4
  %11 = getelementptr inbounds [100 x i8], [100 x i8]* %2, i64 0, i64 0
  %12 = call i32 (i8*, ...) bitcast (i32 (...)* @gets to i32 (i8*, ...)*)(i8* %11)
  %13 = getelementptr inbounds [100 x i8], [100 x i8]* %3, i64 0, i64 0
  %14 = call i32 (i8*, ...) bitcast (i32 (...)* @gets to i32 (i8*, ...)*)(i8* %13)
  %15 = getelementptr inbounds [100 x i8], [100 x i8]* %4, i64 0, i64 0
  %16 = call i32 (i8*, ...) bitcast (i32 (...)* @gets to i32 (i8*, ...)*)(i8* %15)
  store i32 0, i32* %9, align 4
  store i32 0, i32* %10, align 4
  store i32 0, i32* %7, align 4
  br label %17

17:                                               ; preds = %94, %0
  %18 = load i32, i32* %7, align 4
  %19 = sext i32 %18 to i64
  %20 = getelementptr inbounds [100 x i8], [100 x i8]* %2, i64 0, i64 0
  %21 = call i64 @strlen(i8* %20) #3
  %22 = icmp ult i64 %19, %21
  br i1 %22, label %23, label %97

23:                                               ; preds = %17
  %24 = load i32, i32* %7, align 4
  %25 = sext i32 %24 to i64
  %26 = getelementptr inbounds [100 x i8], [100 x i8]* %2, i64 0, i64 %25
  %27 = load i8, i8* %26, align 1
  %28 = sext i8 %27 to i32
  %29 = icmp eq i32 %28, 32
  br i1 %29, label %30, label %84

30:                                               ; preds = %23
  %31 = load i32, i32* %9, align 4
  %32 = sext i32 %31 to i64
  %33 = getelementptr inbounds [100 x i8], [100 x i8]* %6, i64 0, i64 %32
  store i8 0, i8* %33, align 1
  %34 = getelementptr inbounds [100 x i8], [100 x i8]* %6, i64 0, i64 0
  %35 = getelementptr inbounds [100 x i8], [100 x i8]* %3, i64 0, i64 0
  %36 = call i32 @strcmp(i8* %34, i8* %35) #3
  %37 = icmp eq i32 %36, 0
  br i1 %37, label %38, label %59

38:                                               ; preds = %30
  store i32 0, i32* %8, align 4
  br label %39

39:                                               ; preds = %55, %38
  %40 = load i32, i32* %8, align 4
  %41 = sext i32 %40 to i64
  %42 = getelementptr inbounds [100 x i8], [100 x i8]* %4, i64 0, i64 0
  %43 = call i64 @strlen(i8* %42) #3
  %44 = icmp ult i64 %41, %43
  br i1 %44, label %45, label %58

45:                                               ; preds = %39
  %46 = load i32, i32* %8, align 4
  %47 = sext i32 %46 to i64
  %48 = getelementptr inbounds [100 x i8], [100 x i8]* %4, i64 0, i64 %47
  %49 = load i8, i8* %48, align 1
  %50 = load i32, i32* %10, align 4
  %51 = sext i32 %50 to i64
  %52 = getelementptr inbounds [100 x i8], [100 x i8]* %5, i64 0, i64 %51
  store i8 %49, i8* %52, align 1
  %53 = load i32, i32* %10, align 4
  %54 = add nsw i32 %53, 1
  store i32 %54, i32* %10, align 4
  br label %55

55:                                               ; preds = %45
  %56 = load i32, i32* %8, align 4
  %57 = add nsw i32 %56, 1
  store i32 %57, i32* %8, align 4
  br label %39

58:                                               ; preds = %39
  br label %78

59:                                               ; preds = %30
  store i32 0, i32* %8, align 4
  br label %60

60:                                               ; preds = %74, %59
  %61 = load i32, i32* %8, align 4
  %62 = load i32, i32* %9, align 4
  %63 = icmp slt i32 %61, %62
  br i1 %63, label %64, label %77

64:                                               ; preds = %60
  %65 = load i32, i32* %8, align 4
  %66 = sext i32 %65 to i64
  %67 = getelementptr inbounds [100 x i8], [100 x i8]* %6, i64 0, i64 %66
  %68 = load i8, i8* %67, align 1
  %69 = load i32, i32* %10, align 4
  %70 = sext i32 %69 to i64
  %71 = getelementptr inbounds [100 x i8], [100 x i8]* %5, i64 0, i64 %70
  store i8 %68, i8* %71, align 1
  %72 = load i32, i32* %10, align 4
  %73 = add nsw i32 %72, 1
  store i32 %73, i32* %10, align 4
  br label %74

74:                                               ; preds = %64
  %75 = load i32, i32* %8, align 4
  %76 = add nsw i32 %75, 1
  store i32 %76, i32* %8, align 4
  br label %60

77:                                               ; preds = %60
  br label %78

78:                                               ; preds = %77, %58
  %79 = load i32, i32* %10, align 4
  %80 = sext i32 %79 to i64
  %81 = getelementptr inbounds [100 x i8], [100 x i8]* %5, i64 0, i64 %80
  store i8 32, i8* %81, align 1
  %82 = load i32, i32* %10, align 4
  %83 = add nsw i32 %82, 1
  store i32 %83, i32* %10, align 4
  store i32 0, i32* %9, align 4
  br label %94

84:                                               ; preds = %23
  %85 = load i32, i32* %7, align 4
  %86 = sext i32 %85 to i64
  %87 = getelementptr inbounds [100 x i8], [100 x i8]* %2, i64 0, i64 %86
  %88 = load i8, i8* %87, align 1
  %89 = load i32, i32* %9, align 4
  %90 = sext i32 %89 to i64
  %91 = getelementptr inbounds [100 x i8], [100 x i8]* %6, i64 0, i64 %90
  store i8 %88, i8* %91, align 1
  %92 = load i32, i32* %9, align 4
  %93 = add nsw i32 %92, 1
  store i32 %93, i32* %9, align 4
  br label %94

94:                                               ; preds = %84, %78
  %95 = load i32, i32* %7, align 4
  %96 = add nsw i32 %95, 1
  store i32 %96, i32* %7, align 4
  br label %17

97:                                               ; preds = %17
  %98 = load i32, i32* %9, align 4
  %99 = sext i32 %98 to i64
  %100 = getelementptr inbounds [100 x i8], [100 x i8]* %6, i64 0, i64 %99
  store i8 0, i8* %100, align 1
  %101 = getelementptr inbounds [100 x i8], [100 x i8]* %6, i64 0, i64 0
  %102 = getelementptr inbounds [100 x i8], [100 x i8]* %3, i64 0, i64 0
  %103 = call i32 @strcmp(i8* %101, i8* %102) #3
  %104 = icmp eq i32 %103, 0
  br i1 %104, label %105, label %126

105:                                              ; preds = %97
  store i32 0, i32* %8, align 4
  br label %106

106:                                              ; preds = %122, %105
  %107 = load i32, i32* %8, align 4
  %108 = sext i32 %107 to i64
  %109 = getelementptr inbounds [100 x i8], [100 x i8]* %4, i64 0, i64 0
  %110 = call i64 @strlen(i8* %109) #3
  %111 = icmp ult i64 %108, %110
  br i1 %111, label %112, label %125

112:                                              ; preds = %106
  %113 = load i32, i32* %8, align 4
  %114 = sext i32 %113 to i64
  %115 = getelementptr inbounds [100 x i8], [100 x i8]* %4, i64 0, i64 %114
  %116 = load i8, i8* %115, align 1
  %117 = load i32, i32* %10, align 4
  %118 = sext i32 %117 to i64
  %119 = getelementptr inbounds [100 x i8], [100 x i8]* %5, i64 0, i64 %118
  store i8 %116, i8* %119, align 1
  %120 = load i32, i32* %10, align 4
  %121 = add nsw i32 %120, 1
  store i32 %121, i32* %10, align 4
  br label %122

122:                                              ; preds = %112
  %123 = load i32, i32* %8, align 4
  %124 = add nsw i32 %123, 1
  store i32 %124, i32* %8, align 4
  br label %106

125:                                              ; preds = %106
  br label %145

126:                                              ; preds = %97
  store i32 0, i32* %8, align 4
  br label %127

127:                                              ; preds = %141, %126
  %128 = load i32, i32* %8, align 4
  %129 = load i32, i32* %9, align 4
  %130 = icmp slt i32 %128, %129
  br i1 %130, label %131, label %144

131:                                              ; preds = %127
  %132 = load i32, i32* %8, align 4
  %133 = sext i32 %132 to i64
  %134 = getelementptr inbounds [100 x i8], [100 x i8]* %6, i64 0, i64 %133
  %135 = load i8, i8* %134, align 1
  %136 = load i32, i32* %10, align 4
  %137 = sext i32 %136 to i64
  %138 = getelementptr inbounds [100 x i8], [100 x i8]* %5, i64 0, i64 %137
  store i8 %135, i8* %138, align 1
  %139 = load i32, i32* %10, align 4
  %140 = add nsw i32 %139, 1
  store i32 %140, i32* %10, align 4
  br label %141

141:                                              ; preds = %131
  %142 = load i32, i32* %8, align 4
  %143 = add nsw i32 %142, 1
  store i32 %143, i32* %8, align 4
  br label %127

144:                                              ; preds = %127
  br label %145

145:                                              ; preds = %144, %125
  %146 = load i32, i32* %10, align 4
  %147 = sext i32 %146 to i64
  %148 = getelementptr inbounds [100 x i8], [100 x i8]* %5, i64 0, i64 %147
  store i8 0, i8* %148, align 1
  %149 = getelementptr inbounds [100 x i8], [100 x i8]* %5, i64 0, i64 0
  %150 = call i32 (i8*, ...) @printf(i8* getelementptr inbounds ([3 x i8], [3 x i8]* @.str, i64 0, i64 0), i8* %149)
  ret i32 0
}

declare dso_local i32 @gets(...) #1

; Function Attrs: nounwind readonly
declare dso_local i64 @strlen(i8*) #2

; Function Attrs: nounwind readonly
declare dso_local i32 @strcmp(i8*, i8*) #2

declare dso_local i32 @printf(i8*, ...) #1


!llvm.module.flags = !{!0}
!llvm.ident = !{!1}

!0 = !{i32 1, !"wchar_size", i32 4}
!1 = !{!"clang version 10.0.0-4ubuntu1 "}
